target datalayout = "e-m:e-p270:32:32-p271:32:32-p272:64:64-i64:64-i128:128-f80:128-n8:16:32:64-S128"
target triple = "x86_64-pc-linux-gnu"

%"struct.duckdb_libpgquery::PGList" = type { i32, i32, ptr, ptr }
%"struct.duckdb_libpgquery::PGListCell" = type { %union.anon, ptr }
%union.anon = type { ptr }

; Function Attrs: mustprogress uwtable
define internal noundef ptr @_ZN17duckdb_libpgqueryL8new_listENS_9PGNodeTagE(i32 noundef %0) #0 {
  %2 = alloca i32, align 4
  %3 = alloca ptr, align 8
  %4 = alloca ptr, align 8
  store i32 %0, ptr %2, align 4, !tbaa !15
  call void @llvm.lifetime.start.p0(i64 8, ptr %3) #6
  call void @llvm.lifetime.start.p0(i64 8, ptr %4) #6
  %5 = call noundef ptr @_ZN17duckdb_libpgquery6pallocEm(i64 noundef 16)
  store ptr %5, ptr %4, align 8, !tbaa !16
  %6 = load ptr, ptr %4, align 8, !tbaa !16
  %7 = getelementptr inbounds nuw %"struct.duckdb_libpgquery::PGListCell", ptr %6, i32 0, i32 1
  store ptr null, ptr %7, align 8, !tbaa !17
  %8 = call noundef ptr @_ZN17duckdb_libpgquery6pallocEm(i64 noundef 24)
  store ptr %8, ptr %3, align 8, !tbaa !3
  %9 = load i32, ptr %2, align 4, !tbaa !15
  %10 = load ptr, ptr %3, align 8, !tbaa !3
  %11 = getelementptr inbounds nuw %"struct.duckdb_libpgquery::PGList", ptr %10, i32 0, i32 0
  store i32 %9, ptr %11, align 8, !tbaa !19
  %12 = load ptr, ptr %3, align 8, !tbaa !3
  %13 = getelementptr inbounds nuw %"struct.duckdb_libpgquery::PGList", ptr %12, i32 0, i32 1
  store i32 1, ptr %13, align 4, !tbaa !20
  %14 = load ptr, ptr %4, align 8, !tbaa !16
  %15 = load ptr, ptr %3, align 8, !tbaa !3
  %16 = getelementptr inbounds nuw %"struct.duckdb_libpgquery::PGList", ptr %15, i32 0, i32 2
  store ptr %14, ptr %16, align 8, !tbaa !21
  %17 = load ptr, ptr %4, align 8, !tbaa !16
  %18 = load ptr, ptr %3, align 8, !tbaa !3
  %19 = getelementptr inbounds nuw %"struct.duckdb_libpgquery::PGList", ptr %18, i32 0, i32 3
  store ptr %17, ptr %19, align 8, !tbaa !9
  %20 = load ptr, ptr %3, align 8, !tbaa !3
  call void @llvm.lifetime.end.p0(i64 8, ptr %4) #6
  call void @llvm.lifetime.end.p0(i64 8, ptr %3) #6
  ret ptr %20
}

; Function Attrs: mustprogress uwtable
define hidden noundef ptr @_ZN17duckdb_libpgquery14list_copy_tailEPKNS_6PGListEi(ptr noundef %0, i32 noundef %1) #0 {
  %3 = alloca ptr, align 8
  %4 = alloca ptr, align 8
  %5 = alloca i32, align 4
  %6 = alloca ptr, align 8
  %7 = alloca ptr, align 8
  %8 = alloca ptr, align 8
  %9 = alloca i32, align 4
  %10 = alloca ptr, align 8
  store ptr %0, ptr %4, align 8, !tbaa !3
  store i32 %1, ptr %5, align 4, !tbaa !22
  call void @llvm.lifetime.start.p0(i64 8, ptr %6) #6
  call void @llvm.lifetime.start.p0(i64 8, ptr %7) #6
  call void @llvm.lifetime.start.p0(i64 8, ptr %8) #6
  %11 = load i32, ptr %5, align 4, !tbaa !22
  %12 = icmp slt i32 %11, 0
  br i1 %12, label %13, label %14

13:                                               ; preds = %2
  store i32 0, ptr %5, align 4, !tbaa !22
  br label %14

14:                                               ; preds = %13, %2
  %15 = load ptr, ptr %4, align 8, !tbaa !3
  %16 = icmp eq ptr %15, null
  br i1 %16, label %23, label %17

17:                                               ; preds = %14
  %18 = load i32, ptr %5, align 4, !tbaa !22
  %19 = load ptr, ptr %4, align 8, !tbaa !3
  %20 = getelementptr inbounds nuw %"struct.duckdb_libpgquery::PGList", ptr %19, i32 0, i32 1
  %21 = load i32, ptr %20, align 4, !tbaa !20
  %22 = icmp sge i32 %18, %21
  br i1 %22, label %23, label %24

23:                                               ; preds = %17, %14
  store ptr null, ptr %3, align 8
  store i32 1, ptr %9, align 4
  br label %83

24:                                               ; preds = %17
  %25 = load ptr, ptr %4, align 8, !tbaa !3
  %26 = getelementptr inbounds nuw %"struct.duckdb_libpgquery::PGList", ptr %25, i32 0, i32 0
  %27 = load i32, ptr %26, align 8, !tbaa !19
  %28 = call noundef ptr @_ZN17duckdb_libpgqueryL8new_listENS_9PGNodeTagE(i32 noundef %27)
  store ptr %28, ptr %6, align 8, !tbaa !3
  %29 = load ptr, ptr %4, align 8, !tbaa !3
  %30 = getelementptr inbounds nuw %"struct.duckdb_libpgquery::PGList", ptr %29, i32 0, i32 1
  %31 = load i32, ptr %30, align 4, !tbaa !20
  %32 = load i32, ptr %5, align 4, !tbaa !22
  %33 = sub nsw i32 %31, %32
  %34 = load ptr, ptr %6, align 8, !tbaa !3
  %35 = getelementptr inbounds nuw %"struct.duckdb_libpgquery::PGList", ptr %34, i32 0, i32 1
  store i32 %33, ptr %35, align 4, !tbaa !20
  %36 = load ptr, ptr %4, align 8, !tbaa !3
  %37 = getelementptr inbounds nuw %"struct.duckdb_libpgquery::PGList", ptr %36, i32 0, i32 2
  %38 = load ptr, ptr %37, align 8, !tbaa !21
  store ptr %38, ptr %8, align 8, !tbaa !16
  br label %39

39:                                               ; preds = %43, %24
  %40 = load i32, ptr %5, align 4, !tbaa !22
  %41 = add nsw i32 %40, -1
  store i32 %41, ptr %5, align 4, !tbaa !22
  %42 = icmp sgt i32 %40, 0
  br i1 %42, label %43, label %47

43:                                               ; preds = %39
  %44 = load ptr, ptr %8, align 8, !tbaa !16
  %45 = getelementptr inbounds nuw %"struct.duckdb_libpgquery::PGListCell", ptr %44, i32 0, i32 1
  %46 = load ptr, ptr %45, align 8, !tbaa !17
  store ptr %46, ptr %8, align 8, !tbaa !16
  br label %39, !llvm.loop !33

47:                                               ; preds = %39
  %48 = load ptr, ptr %8, align 8, !tbaa !16
  %49 = getelementptr inbounds nuw %"struct.duckdb_libpgquery::PGListCell", ptr %48, i32 0, i32 0
  %50 = load ptr, ptr %6, align 8, !tbaa !3
  %51 = getelementptr inbounds nuw %"struct.duckdb_libpgquery::PGList", ptr %50, i32 0, i32 2
  %52 = load ptr, ptr %51, align 8, !tbaa !21
  %53 = getelementptr inbounds nuw %"struct.duckdb_libpgquery::PGListCell", ptr %52, i32 0, i32 0
  call void @llvm.memcpy.p0.p0.i64(ptr align 8 %53, ptr align 8 %49, i64 8, i1 false), !tbaa.struct !31
  %54 = load ptr, ptr %6, align 8, !tbaa !3
  %55 = getelementptr inbounds nuw %"struct.duckdb_libpgquery::PGList", ptr %54, i32 0, i32 2
  %56 = load ptr, ptr %55, align 8, !tbaa !21
  store ptr %56, ptr %7, align 8, !tbaa !16
  %57 = load ptr, ptr %8, align 8, !tbaa !16
  %58 = getelementptr inbounds nuw %"struct.duckdb_libpgquery::PGListCell", ptr %57, i32 0, i32 1
  %59 = load ptr, ptr %58, align 8, !tbaa !17
  store ptr %59, ptr %8, align 8, !tbaa !16
  br label %60

60:                                               ; preds = %63, %47
  %61 = load ptr, ptr %8, align 8, !tbaa !16
  %62 = icmp ne ptr %61, null
  br i1 %62, label %63, label %76

63:                                               ; preds = %60
  call void @llvm.lifetime.start.p0(i64 8, ptr %10) #6
  %64 = call noundef ptr @_ZN17duckdb_libpgquery6pallocEm(i64 noundef 16)
  store ptr %64, ptr %10, align 8, !tbaa !16
  %65 = load ptr, ptr %8, align 8, !tbaa !16
  %66 = getelementptr inbounds nuw %"struct.duckdb_libpgquery::PGListCell", ptr %65, i32 0, i32 0
  %67 = load ptr, ptr %10, align 8, !tbaa !16
  %68 = getelementptr inbounds nuw %"struct.duckdb_libpgquery::PGListCell", ptr %67, i32 0, i32 0
  call void @llvm.memcpy.p0.p0.i64(ptr align 8 %68, ptr align 8 %66, i64 8, i1 false), !tbaa.struct !31
  %69 = load ptr, ptr %10, align 8, !tbaa !16
  %70 = load ptr, ptr %7, align 8, !tbaa !16
  %71 = getelementptr inbounds nuw %"struct.duckdb_libpgquery::PGListCell", ptr %70, i32 0, i32 1
  store ptr %69, ptr %71, align 8, !tbaa !17
  %72 = load ptr, ptr %10, align 8, !tbaa !16
  store ptr %72, ptr %7, align 8, !tbaa !16
  %73 = load ptr, ptr %8, align 8, !tbaa !16
  %74 = getelementptr inbounds nuw %"struct.duckdb_libpgquery::PGListCell", ptr %73, i32 0, i32 1
  %75 = load ptr, ptr %74, align 8, !tbaa !17
  store ptr %75, ptr %8, align 8, !tbaa !16
  call void @llvm.lifetime.end.p0(i64 8, ptr %10) #6
  br label %60, !llvm.loop !34

76:                                               ; preds = %60
  %77 = load ptr, ptr %7, align 8, !tbaa !16
  %78 = getelementptr inbounds nuw %"struct.duckdb_libpgquery::PGListCell", ptr %77, i32 0, i32 1
  store ptr null, ptr %78, align 8, !tbaa !17
  %79 = load ptr, ptr %7, align 8, !tbaa !16
  %80 = load ptr, ptr %6, align 8, !tbaa !3
  %81 = getelementptr inbounds nuw %"struct.duckdb_libpgquery::PGList", ptr %80, i32 0, i32 3
  store ptr %79, ptr %81, align 8, !tbaa !9
  %82 = load ptr, ptr %6, align 8, !tbaa !3
  store ptr %82, ptr %3, align 8
  store i32 1, ptr %9, align 4
  br label %83

83:                                               ; preds = %76, %23
  call void @llvm.lifetime.end.p0(i64 8, ptr %8) #6
  call void @llvm.lifetime.end.p0(i64 8, ptr %7) #6
  call void @llvm.lifetime.end.p0(i64 8, ptr %6) #6
  %84 = load ptr, ptr %3, align 8
  ret ptr %84
}