; Function Attrs: mustprogress uwtable
define hidden noundef ptr @_ZN17duckdb_libpgquery14list_copy_tailEPKNS_6PGListEi(ptr noundef readonly captures(address_is_null) %0, i32 noundef %1) local_unnamed_addr #0 {
  %spec.store.select = tail call i32 @llvm.smax.i32(i32 %1, i32 0)
  %3 = icmp eq ptr %0, null
  br i1 %3, label %26, label %4

4:                                                ; preds = %2
  %5 = getelementptr inbounds nuw i8, ptr %0, i64 4
  %6 = load i32, ptr %5, align 4, !tbaa !13
  %.not = icmp slt i32 %spec.store.select, %6
  br i1 %.not, label %7, label %26

7:                                                ; preds = %4
  %8 = load i32, ptr %0, align 8, !tbaa !9
  %9 = tail call noundef ptr @_ZN17duckdb_libpgquery6pallocEm(i64 noundef 16)
  %10 = getelementptr inbounds nuw i8, ptr %9, i64 8
  store ptr null, ptr %10, align 8, !tbaa !3
  %11 = tail call noundef ptr @_ZN17duckdb_libpgquery6pallocEm(i64 noundef 24)
  store i32 %8, ptr %11, align 8, !tbaa !9
  %12 = getelementptr inbounds nuw i8, ptr %11, i64 4
  store i32 1, ptr %12, align 4, !tbaa !13
  %13 = getelementptr inbounds nuw i8, ptr %11, i64 8
  store ptr %9, ptr %13, align 8, !tbaa !14
  %14 = getelementptr inbounds nuw i8, ptr %11, i64 16
  store ptr %9, ptr %14, align 8, !tbaa !15
  %15 = load i32, ptr %5, align 4, !tbaa !13
  %16 = sub nsw i32 %15, %spec.store.select
  store i32 %16, ptr %12, align 4, !tbaa !13
  br label %17

17:                                               ; preds = %17, %7
  %.028 = phi i32 [ %spec.store.select, %7 ], [ %18, %17 ]
  %.pn = phi ptr [ %0, %7 ], [ %.026, %17 ]
  %.026.in = getelementptr inbounds nuw i8, ptr %.pn, i64 8
  %.026 = load ptr, ptr %.026.in, align 8, !tbaa !17
  %.not36 = icmp eq i32 %.028, 0
  %18 = add nsw i32 %.028, -1
  br i1 %.not36, label %19, label %17, !llvm.loop !23

19:                                               ; preds = %17
  %20 = load i64, ptr %.026, align 8, !tbaa !16
  store i64 %20, ptr %9, align 8, !tbaa !16
  %21 = load ptr, ptr %13, align 8, !tbaa !14
  %.1.in31 = getelementptr inbounds nuw i8, ptr %.026, i64 8
  %.132 = load ptr, ptr %.1.in31, align 8, !tbaa !3
  %.not3033 = icmp eq ptr %.132, null
  br i1 %.not3033, label %._crit_edge, label %.lr.ph

.lr.ph:                                           ; preds = %19, %.lr.ph
  %.135 = phi ptr [ %.1, %.lr.ph ], [ %.132, %19 ]
  %.02734 = phi ptr [ %22, %.lr.ph ], [ %21, %19 ]
  %22 = tail call noundef ptr @_ZN17duckdb_libpgquery6pallocEm(i64 noundef 16)
  %23 = load i64, ptr %.135, align 8, !tbaa !16
  store i64 %23, ptr %22, align 8, !tbaa !16
  %24 = getelementptr inbounds nuw i8, ptr %.02734, i64 8
  store ptr %22, ptr %24, align 8, !tbaa !3
  %.1.in = getelementptr inbounds nuw i8, ptr %.135, i64 8
  %.1 = load ptr, ptr %.1.in, align 8, !tbaa !3
  %.not30 = icmp eq ptr %.1, null
  br i1 %.not30, label %._crit_edge, label %.lr.ph, !llvm.loop !24

._crit_edge:                                      ; preds = %.lr.ph, %19
  %.027.lcssa = phi ptr [ %21, %19 ], [ %22, %.lr.ph ]
  %25 = getelementptr inbounds nuw i8, ptr %.027.lcssa, i64 8
  store ptr null, ptr %25, align 8, !tbaa !3
  store ptr %.027.lcssa, ptr %14, align 8, !tbaa !15
  br label %26

26:                                               ; preds = %2, %4, %._crit_edge
  %.0 = phi ptr [ %11, %._crit_edge ], [ null, %4 ], [ null, %2 ]
  ret ptr %.0
}